; Function Attrs: mustprogress nounwind uwtable
define hidden void @_ZN4ncnn21UnlockedPoolAllocator5clearEv(ptr noundef nonnull readonly align 8 captures(none) dereferenceable(16) %0) local_unnamed_addr #1 align 2 personality ptr @__gxx_personality_v0 {
  %2 = getelementptr inbounds nuw i8, ptr %0, i64 8
  %3 = load ptr, ptr %2, align 8, !tbaa !34
  %4 = getelementptr inbounds nuw i8, ptr %3, i64 16
  %.sroa.02.06 = load ptr, ptr %4, align 8, !tbaa !11
  %.not7 = icmp eq ptr %.sroa.02.06, %4
  br i1 %.not7, label %._crit_edge, label %.lr.ph

.lr.ph:                                           ; preds = %1, %_ZN4ncnnL8fastFreeEPv.exit
  %5 = phi ptr [ %9, %_ZN4ncnnL8fastFreeEPv.exit ], [ %3, %1 ]
  %.sroa.02.08 = phi ptr [ %.sroa.02.0, %_ZN4ncnnL8fastFreeEPv.exit ], [ %.sroa.02.06, %1 ]
  %6 = getelementptr inbounds nuw i8, ptr %.sroa.02.08, i64 24
  %7 = load ptr, ptr %6, align 8, !tbaa !27
  %.not.i = icmp eq ptr %7, null
  br i1 %.not.i, label %_ZN4ncnnL8fastFreeEPv.exit, label %8

8:                                                ; preds = %.lr.ph
  tail call void @free(ptr noundef nonnull %7) #16
  %.pre = load ptr, ptr %2, align 8, !tbaa !34
  br label %_ZN4ncnnL8fastFreeEPv.exit

_ZN4ncnnL8fastFreeEPv.exit:                       ; preds = %.lr.ph, %8
  %9 = phi ptr [ %5, %.lr.ph ], [ %.pre, %8 ]
  %.sroa.02.0 = load ptr, ptr %.sroa.02.08, align 8, !tbaa !11
  %10 = getelementptr inbounds nuw i8, ptr %9, i64 16
  %.not = icmp eq ptr %.sroa.02.0, %10
  br i1 %.not, label %._crit_edge.loopexit, label %.lr.ph, !llvm.loop !49

._crit_edge.loopexit:                             ; preds = %_ZN4ncnnL8fastFreeEPv.exit
  %.pre12 = load ptr, ptr %10, align 8, !tbaa !11
  br label %._crit_edge

._crit_edge:                                      ; preds = %._crit_edge.loopexit, %1
  %11 = phi ptr [ %.sroa.02.06, %1 ], [ %.pre12, %._crit_edge.loopexit ]
  %.lcssa5 = phi ptr [ %3, %1 ], [ %9, %._crit_edge.loopexit ]
  %.lcssa = phi ptr [ %4, %1 ], [ %10, %._crit_edge.loopexit ]
  %.not8.i.i = icmp eq ptr %11, %.lcssa
  br i1 %.not8.i.i, label %_ZNSt7__cxx114listISt4pairImPvESaIS3_EE5clearEv.exit, label %.lr.ph.i.i

.lr.ph.i.i:                                       ; preds = %._crit_edge, %.lr.ph.i.i
  %.09.i.i = phi ptr [ %12, %.lr.ph.i.i ], [ %11, %._crit_edge ]
  %12 = load ptr, ptr %.09.i.i, align 8, !tbaa !11
  tail call void @_ZdlPvm(ptr noundef nonnull %.09.i.i, i64 noundef 32) #17
  %.not.i.i = icmp eq ptr %12, %.lcssa
  br i1 %.not.i.i, label %_ZNSt7__cxx114listISt4pairImPvESaIS3_EE5clearEv.exit, label %.lr.ph.i.i, !llvm.loop !47

_ZNSt7__cxx114listISt4pairImPvESaIS3_EE5clearEv.exit: ; preds = %.lr.ph.i.i, %._crit_edge
  %13 = getelementptr inbounds nuw i8, ptr %.lcssa5, i64 24
  store ptr %.lcssa, ptr %13, align 8, !tbaa !44
  store ptr %.lcssa, ptr %.lcssa, align 8, !tbaa !11
  %14 = getelementptr inbounds nuw i8, ptr %.lcssa5, i64 32
  store i64 0, ptr %14, align 8, !tbaa !45
  ret void
}